target datalayout = "e-m:e-p270:32:32-p271:32:32-p272:64:64-i64:64-i128:128-f80:128-n8:16:32:64-S128"
target triple = "x86_64-pc-linux-gnu"

%"struct.rocksdb::FileIndexer::IndexLevel" = type { i64, ptr }
%"struct.rocksdb::FileIndexer::IndexUnit" = type { i32, i32, i32, i32 }
%"class.std::function" = type { %"class.std::_Function_base", ptr }
%"class.std::_Function_base" = type { %"union.std::_Any_data", ptr }
%"union.std::_Any_data" = type { %"union.std::_Nocopy_types" }
%"union.std::_Nocopy_types" = type { { i64, i64 } }
%"class.std::function.19" = type { %"class.std::_Function_base", ptr }
%"struct.std::_Vector_base.15" = type { %"struct.std::_Vector_base<rocksdb::FileMetaData *, std::allocator<rocksdb::FileMetaData *>>::_Vector_impl" }
%"struct.std::_Vector_base<rocksdb::FileMetaData *, std::allocator<rocksdb::FileMetaData *>>::_Vector_impl" = type { %"struct.std::_Vector_base<rocksdb::FileMetaData *, std::allocator<rocksdb::FileMetaData *>>::_Vector_impl_data" }
%"struct.std::_Vector_base<rocksdb::FileMetaData *, std::allocator<rocksdb::FileMetaData *>>::_Vector_impl_data" = type { ptr, ptr, ptr }

; Function Attrs: mustprogress nounwind uwtable
define linkonce_odr noundef zeroext i1 @_ZNKSt14_Function_base8_M_emptyEv(ptr noundef nonnull align 8 dereferenceable(24) %0) #4 comdat align 2 {
  %2 = alloca ptr, align 8
  store ptr %0, ptr %2, align 8, !tbaa !96
  %3 = load ptr, ptr %2, align 8
  %4 = getelementptr inbounds nuw %"class.std::_Function_base", ptr %3, i32 0, i32 1
  %5 = load ptr, ptr %4, align 8, !tbaa !93
  %6 = icmp ne ptr %5, null
  %7 = xor i1 %6, true
  ret i1 %7
}

; Function Attrs: mustprogress uwtable
define linkonce_odr void @_ZNKSt8functionIFvPN7rocksdb11FileIndexer9IndexUnitEiEEclES3_i(ptr noundef nonnull align 8 dereferenceable(32) %0, ptr noundef %1, i32 noundef %2) #6 comdat align 2 {
  %4 = alloca ptr, align 8
  %5 = alloca ptr, align 8
  %6 = alloca i32, align 4
  store ptr %0, ptr %4, align 8, !tbaa !83
  store ptr %1, ptr %5, align 8, !tbaa !48
  store i32 %2, ptr %6, align 4, !tbaa !44
  %7 = load ptr, ptr %4, align 8
  %8 = call noundef zeroext i1 @_ZNKSt14_Function_base8_M_emptyEv(ptr noundef nonnull align 8 dereferenceable(24) %7)
  br i1 %8, label %9, label %10

9:                                                ; preds = %3
  call void @_ZSt25__throw_bad_function_callv() #15
  unreachable

10:                                               ; preds = %3
  %11 = getelementptr inbounds nuw %"class.std::function.19", ptr %7, i32 0, i32 1
  %12 = load ptr, ptr %11, align 8, !tbaa !94
  %13 = getelementptr inbounds nuw %"class.std::_Function_base", ptr %7, i32 0, i32 0
  call void %12(ptr noundef nonnull align 8 dereferenceable(16) %13, ptr noundef nonnull align 8 dereferenceable(8) %5, ptr noundef nonnull align 4 dereferenceable(4) %6)
  ret void
}

; Function Attrs: mustprogress uwtable
define linkonce_odr noundef i32 @_ZNKSt8functionIFiPKN7rocksdb12FileMetaDataES3_EEclES3_S3_(ptr noundef nonnull align 8 dereferenceable(32) %0, ptr noundef %1, ptr noundef %2) #6 comdat align 2 {
  %4 = alloca ptr, align 8
  %5 = alloca ptr, align 8
  %6 = alloca ptr, align 8
  store ptr %0, ptr %4, align 8, !tbaa !81
  store ptr %1, ptr %5, align 8, !tbaa !85
  store ptr %2, ptr %6, align 8, !tbaa !85
  %7 = load ptr, ptr %4, align 8
  %8 = call noundef zeroext i1 @_ZNKSt14_Function_base8_M_emptyEv(ptr noundef nonnull align 8 dereferenceable(24) %7)
  br i1 %8, label %9, label %10

9:                                                ; preds = %3
  call void @_ZSt25__throw_bad_function_callv() #15
  unreachable

10:                                               ; preds = %3
  %11 = getelementptr inbounds nuw %"class.std::function", ptr %7, i32 0, i32 1
  %12 = load ptr, ptr %11, align 8, !tbaa !90
  %13 = getelementptr inbounds nuw %"class.std::_Function_base", ptr %7, i32 0, i32 0
  %14 = call noundef i32 %12(ptr noundef nonnull align 8 dereferenceable(16) %13, ptr noundef nonnull align 8 dereferenceable(8) %5, ptr noundef nonnull align 8 dereferenceable(8) %6)
  ret i32 %14
}

; Function Attrs: mustprogress nounwind uwtable
define linkonce_odr noundef nonnull align 8 dereferenceable(8) ptr @_ZNKSt6vectorIPN7rocksdb12FileMetaDataESaIS2_EEixEm(ptr noundef nonnull align 8 dereferenceable(24) %0, i64 noundef %1) #4 comdat align 2 {
  %3 = alloca ptr, align 8
  %4 = alloca i64, align 8
  store ptr %0, ptr %3, align 8, !tbaa !56
  store i64 %1, ptr %4, align 8, !tbaa !4
  %5 = load ptr, ptr %3, align 8
  %6 = getelementptr inbounds nuw %"struct.std::_Vector_base.15", ptr %5, i32 0, i32 0
  %7 = getelementptr inbounds nuw %"struct.std::_Vector_base<rocksdb::FileMetaData *, std::allocator<rocksdb::FileMetaData *>>::_Vector_impl_data", ptr %6, i32 0, i32 0
  %8 = load ptr, ptr %7, align 8, !tbaa !80
  %9 = load i64, ptr %4, align 8, !tbaa !4
  %10 = getelementptr inbounds nuw ptr, ptr %8, i64 %9
  ret ptr %10
}

; Function Attrs: mustprogress nounwind uwtable
define linkonce_odr noundef i64 @_ZNKSt6vectorIPN7rocksdb12FileMetaDataESaIS2_EE4sizeEv(ptr noundef nonnull align 8 dereferenceable(24) %0) #4 comdat align 2 {
  %2 = alloca ptr, align 8
  store ptr %0, ptr %2, align 8, !tbaa !56
  %3 = load ptr, ptr %2, align 8
  %4 = getelementptr inbounds nuw %"struct.std::_Vector_base.15", ptr %3, i32 0, i32 0
  %5 = getelementptr inbounds nuw %"struct.std::_Vector_base<rocksdb::FileMetaData *, std::allocator<rocksdb::FileMetaData *>>::_Vector_impl_data", ptr %4, i32 0, i32 1
  %6 = load ptr, ptr %5, align 8, !tbaa !76
  %7 = getelementptr inbounds nuw %"struct.std::_Vector_base.15", ptr %3, i32 0, i32 0
  %8 = getelementptr inbounds nuw %"struct.std::_Vector_base<rocksdb::FileMetaData *, std::allocator<rocksdb::FileMetaData *>>::_Vector_impl_data", ptr %7, i32 0, i32 0
  %9 = load ptr, ptr %8, align 8, !tbaa !80
  %10 = ptrtoint ptr %6 to i64
  %11 = ptrtoint ptr %9 to i64
  %12 = sub i64 %10, %11
  %13 = sdiv exact i64 %12, 8
  ret i64 %13
}

; Function Attrs: mustprogress uwtable
define void @_ZN7rocksdb11FileIndexer11CalculateLBERKSt6vectorIPNS_12FileMetaDataESaIS3_EES7_PNS0_10IndexLevelESt8functionIFiPKS2_SC_EESA_IFvPNS0_9IndexUnitEiEE(ptr noundef nonnull align 8 dereferenceable(192) %0, ptr noundef nonnull align 8 dereferenceable(24) %1, ptr noundef nonnull align 8 dereferenceable(24) %2, ptr noundef %3, ptr noundef %4, ptr noundef %5) #6 align 2 {
  %7 = alloca ptr, align 8
  %8 = alloca ptr, align 8
  %9 = alloca ptr, align 8
  %10 = alloca ptr, align 8
  %11 = alloca ptr, align 8
  %12 = alloca ptr, align 8
  %13 = alloca i32, align 4
  %14 = alloca i32, align 4
  %15 = alloca i32, align 4
  %16 = alloca i32, align 4
  %17 = alloca ptr, align 8
  %18 = alloca i32, align 4
  store ptr %0, ptr %7, align 8, !tbaa !22
  store ptr %1, ptr %8, align 8, !tbaa !56
  store ptr %2, ptr %9, align 8, !tbaa !56
  store ptr %3, ptr %10, align 8, !tbaa !63
  store ptr %4, ptr %11, align 8, !tbaa !81
  store ptr %5, ptr %12, align 8, !tbaa !83
  call void @llvm.lifetime.start.p0(i64 4, ptr %13) #5
  %19 = load ptr, ptr %8, align 8, !tbaa !56
  %20 = call noundef i64 @_ZNKSt6vectorIPN7rocksdb12FileMetaDataESaIS2_EE4sizeEv(ptr noundef nonnull align 8 dereferenceable(24) %19) #5
  %21 = trunc i64 %20 to i32
  store i32 %21, ptr %13, align 4, !tbaa !44
  call void @llvm.lifetime.start.p0(i64 4, ptr %14) #5
  %22 = load ptr, ptr %9, align 8, !tbaa !56
  %23 = call noundef i64 @_ZNKSt6vectorIPN7rocksdb12FileMetaDataESaIS2_EE4sizeEv(ptr noundef nonnull align 8 dereferenceable(24) %22) #5
  %24 = trunc i64 %23 to i32
  store i32 %24, ptr %14, align 4, !tbaa !44
  call void @llvm.lifetime.start.p0(i64 4, ptr %15) #5
  store i32 0, ptr %15, align 4, !tbaa !44
  call void @llvm.lifetime.start.p0(i64 4, ptr %16) #5
  store i32 0, ptr %16, align 4, !tbaa !44
  call void @llvm.lifetime.start.p0(i64 8, ptr %17) #5
  %25 = load ptr, ptr %10, align 8, !tbaa !63
  %26 = getelementptr inbounds nuw %"struct.rocksdb::FileIndexer::IndexLevel", ptr %25, i32 0, i32 1
  %27 = load ptr, ptr %26, align 8, !tbaa !47
  store ptr %27, ptr %17, align 8, !tbaa !48
  br label %28

28:                                               ; preds = %75, %6
  %29 = load i32, ptr %15, align 4, !tbaa !44
  %30 = load i32, ptr %13, align 4, !tbaa !44
  %31 = icmp slt i32 %29, %30
  br i1 %31, label %32, label %36

32:                                               ; preds = %28
  %33 = load i32, ptr %16, align 4, !tbaa !44
  %34 = load i32, ptr %14, align 4, !tbaa !44
  %35 = icmp slt i32 %33, %34
  br label %36

36:                                               ; preds = %32, %28
  %37 = phi i1 [ false, %28 ], [ %35, %32 ]
  br i1 %37, label %38, label %76

38:                                               ; preds = %36
  call void @llvm.lifetime.start.p0(i64 4, ptr %18) #5
  %39 = load ptr, ptr %8, align 8, !tbaa !56
  %40 = load i32, ptr %15, align 4, !tbaa !44
  %41 = sext i32 %40 to i64
  %42 = call noundef nonnull align 8 dereferenceable(8) ptr @_ZNKSt6vectorIPN7rocksdb12FileMetaDataESaIS2_EEixEm(ptr noundef nonnull align 8 dereferenceable(24) %39, i64 noundef %41) #5
  %43 = load ptr, ptr %42, align 8, !tbaa !85
  %44 = load ptr, ptr %9, align 8, !tbaa !56
  %45 = load i32, ptr %16, align 4, !tbaa !44
  %46 = sext i32 %45 to i64
  %47 = call noundef nonnull align 8 dereferenceable(8) ptr @_ZNKSt6vectorIPN7rocksdb12FileMetaDataESaIS2_EEixEm(ptr noundef nonnull align 8 dereferenceable(24) %44, i64 noundef %46) #5
  %48 = load ptr, ptr %47, align 8, !tbaa !85
  %49 = call noundef i32 @_ZNKSt8functionIFiPKN7rocksdb12FileMetaDataES3_EEclES3_S3_(ptr noundef nonnull align 8 dereferenceable(32) %4, ptr noundef %43, ptr noundef %48)
  store i32 %49, ptr %18, align 4, !tbaa !44
  %50 = load i32, ptr %18, align 4, !tbaa !44
  %51 = icmp eq i32 %50, 0
  br i1 %51, label %52, label %60

52:                                               ; preds = %38
  %53 = load ptr, ptr %17, align 8, !tbaa !48
  %54 = load i32, ptr %15, align 4, !tbaa !44
  %55 = sext i32 %54 to i64
  %56 = getelementptr inbounds %"struct.rocksdb::FileIndexer::IndexUnit", ptr %53, i64 %55
  %57 = load i32, ptr %16, align 4, !tbaa !44
  call void @_ZNKSt8functionIFvPN7rocksdb11FileIndexer9IndexUnitEiEEclES3_i(ptr noundef nonnull align 8 dereferenceable(32) %5, ptr noundef %56, i32 noundef %57)
  %58 = load i32, ptr %15, align 4, !tbaa !44
  %59 = add nsw i32 %58, 1
  store i32 %59, ptr %15, align 4, !tbaa !44
  br label %75

60:                                               ; preds = %38
  %61 = load i32, ptr %18, align 4, !tbaa !44
  %62 = icmp sgt i32 %61, 0
  br i1 %62, label %63, label %66

63:                                               ; preds = %60
  %64 = load i32, ptr %16, align 4, !tbaa !44
  %65 = add nsw i32 %64, 1
  store i32 %65, ptr %16, align 4, !tbaa !44
  br label %74

66:                                               ; preds = %60
  %67 = load ptr, ptr %17, align 8, !tbaa !48
  %68 = load i32, ptr %15, align 4, !tbaa !44
  %69 = sext i32 %68 to i64
  %70 = getelementptr inbounds %"struct.rocksdb::FileIndexer::IndexUnit", ptr %67, i64 %69
  %71 = load i32, ptr %16, align 4, !tbaa !44
  call void @_ZNKSt8functionIFvPN7rocksdb11FileIndexer9IndexUnitEiEEclES3_i(ptr noundef nonnull align 8 dereferenceable(32) %5, ptr noundef %70, i32 noundef %71)
  %72 = load i32, ptr %15, align 4, !tbaa !44
  %73 = add nsw i32 %72, 1
  store i32 %73, ptr %15, align 4, !tbaa !44
  br label %74

74:                                               ; preds = %66, %63
  br label %75

75:                                               ; preds = %74, %52
  call void @llvm.lifetime.end.p0(i64 4, ptr %18) #5
  br label %28, !llvm.loop !87

76:                                               ; preds = %36
  br label %77

77:                                               ; preds = %81, %76
  %78 = load i32, ptr %15, align 4, !tbaa !44
  %79 = load i32, ptr %13, align 4, !tbaa !44
  %80 = icmp slt i32 %78, %79
  br i1 %80, label %81, label %89

81:                                               ; preds = %77
  %82 = load ptr, ptr %17, align 8, !tbaa !48
  %83 = load i32, ptr %15, align 4, !tbaa !44
  %84 = sext i32 %83 to i64
  %85 = getelementptr inbounds %"struct.rocksdb::FileIndexer::IndexUnit", ptr %82, i64 %84
  %86 = load i32, ptr %14, align 4, !tbaa !44
  call void @_ZNKSt8functionIFvPN7rocksdb11FileIndexer9IndexUnitEiEEclES3_i(ptr noundef nonnull align 8 dereferenceable(32) %5, ptr noundef %85, i32 noundef %86)
  %87 = load i32, ptr %15, align 4, !tbaa !44
  %88 = add nsw i32 %87, 1
  store i32 %88, ptr %15, align 4, !tbaa !44
  br label %77, !llvm.loop !88

89:                                               ; preds = %77
  call void @llvm.lifetime.end.p0(i64 8, ptr %17) #5
  call void @llvm.lifetime.end.p0(i64 4, ptr %16) #5
  call void @llvm.lifetime.end.p0(i64 4, ptr %15) #5
  call void @llvm.lifetime.end.p0(i64 4, ptr %14) #5
  call void @llvm.lifetime.end.p0(i64 4, ptr %13) #5
  ret void
}