; Function Attrs: mustprogress uwtable
define void @_ZN7rocksdb11FileIndexer11CalculateLBERKSt6vectorIPNS_12FileMetaDataESaIS3_EES7_PNS0_10IndexLevelESt8functionIFiPKS2_SC_EESA_IFvPNS0_9IndexUnitEiEE(ptr nonnull readnone align 8 captures(none) %0, ptr noundef nonnull readonly align 8 captures(none) dereferenceable(24) %1, ptr noundef nonnull readonly align 8 captures(none) dereferenceable(24) %2, ptr noundef readonly captures(none) %3, ptr noundef %4, ptr noundef %5) local_unnamed_addr #7 align 2 {
  %7 = alloca ptr, align 8
  %8 = alloca i32, align 4
  %9 = alloca ptr, align 8
  %10 = alloca i32, align 4
  %11 = alloca ptr, align 8
  %12 = alloca i32, align 4
  %13 = alloca ptr, align 8
  %14 = alloca ptr, align 8
  %15 = getelementptr inbounds nuw i8, ptr %1, i64 8
  %16 = load ptr, ptr %15, align 8, !tbaa !44
  %17 = load ptr, ptr %1, align 8, !tbaa !48
  %18 = ptrtoint ptr %16 to i64
  %19 = ptrtoint ptr %17 to i64
  %20 = sub i64 %18, %19
  %21 = lshr exact i64 %20, 3
  %22 = trunc i64 %21 to i32
  %23 = getelementptr inbounds nuw i8, ptr %2, i64 8
  %24 = load ptr, ptr %23, align 8, !tbaa !44
  %25 = load ptr, ptr %2, align 8, !tbaa !48
  %26 = ptrtoint ptr %24 to i64
  %27 = ptrtoint ptr %25 to i64
  %28 = sub i64 %26, %27
  %29 = lshr exact i64 %28, 3
  %30 = trunc i64 %29 to i32
  %31 = getelementptr inbounds nuw i8, ptr %3, i64 8
  %32 = load ptr, ptr %31, align 8, !tbaa !32
  %33 = icmp sgt i32 %22, 0
  %34 = icmp sgt i32 %30, 0
  %35 = select i1 %33, i1 %34, i1 false
  br i1 %35, label %.lr.ph, label %.preheader

.lr.ph:                                           ; preds = %6
  %36 = getelementptr inbounds nuw i8, ptr %4, i64 16
  %37 = getelementptr inbounds nuw i8, ptr %4, i64 24
  %38 = getelementptr inbounds nuw i8, ptr %5, i64 16
  %39 = getelementptr inbounds nuw i8, ptr %5, i64 24
  br label %44

.preheader:                                       ; preds = %74, %6
  %.0.lcssa = phi i32 [ 0, %6 ], [ %.1, %74 ]
  %40 = icmp slt i32 %.0.lcssa, %22
  br i1 %40, label %.lr.ph41, label %._crit_edge

.lr.ph41:                                         ; preds = %.preheader
  %41 = getelementptr inbounds nuw i8, ptr %5, i64 16
  %42 = getelementptr inbounds nuw i8, ptr %5, i64 24
  %43 = sext i32 %.0.lcssa to i64
  %sext = shl i64 %20, 29
  %wide.trip.count = ashr i64 %sext, 32
  br label %78

44:                                               ; preds = %.lr.ph, %74
  %.039 = phi i32 [ 0, %.lr.ph ], [ %.1, %74 ]
  %.02738 = phi i32 [ 0, %.lr.ph ], [ %.128, %74 ]
  %45 = sext i32 %.039 to i64
  %46 = load ptr, ptr %1, align 8, !tbaa !48
  %47 = getelementptr inbounds nuw ptr, ptr %46, i64 %45
  %48 = load ptr, ptr %47, align 8, !tbaa !58
  %49 = sext i32 %.02738 to i64
  %50 = load ptr, ptr %2, align 8, !tbaa !48
  %51 = getelementptr inbounds nuw ptr, ptr %50, i64 %49
  %52 = load ptr, ptr %51, align 8, !tbaa !58
  call void @llvm.lifetime.start.p0(i64 8, ptr nonnull %13)
  call void @llvm.lifetime.start.p0(i64 8, ptr nonnull %14)
  store ptr %48, ptr %13, align 8, !tbaa !58
  store ptr %52, ptr %14, align 8, !tbaa !58
  %53 = load ptr, ptr %36, align 8, !tbaa !54
  %.not.i.i = icmp eq ptr %53, null
  br i1 %.not.i.i, label %54, label %_ZNKSt8functionIFiPKN7rocksdb12FileMetaDataES3_EEclES3_S3_.exit

54:                                               ; preds = %44
  call void @_ZSt25__throw_bad_function_callv() #22
  unreachable

_ZNKSt8functionIFiPKN7rocksdb12FileMetaDataES3_EEclES3_S3_.exit: ; preds = %44
  %55 = load ptr, ptr %37, align 8, !tbaa !51
  %56 = call noundef i32 %55(ptr noundef nonnull align 8 dereferenceable(32) %4, ptr noundef nonnull align 8 dereferenceable(8) %13, ptr noundef nonnull align 8 dereferenceable(8) %14)
  call void @llvm.lifetime.end.p0(i64 8, ptr nonnull %13)
  call void @llvm.lifetime.end.p0(i64 8, ptr nonnull %14)
  %57 = icmp eq i32 %56, 0
  br i1 %57, label %58, label %64

58:                                               ; preds = %_ZNKSt8functionIFiPKN7rocksdb12FileMetaDataES3_EEclES3_S3_.exit
  %59 = getelementptr inbounds %"struct.rocksdb::FileIndexer::IndexUnit", ptr %32, i64 %45
  call void @llvm.lifetime.start.p0(i64 8, ptr nonnull %11)
  call void @llvm.lifetime.start.p0(i64 4, ptr nonnull %12)
  store ptr %59, ptr %11, align 8, !tbaa !60
  store i32 %.02738, ptr %12, align 4, !tbaa !30
  %60 = load ptr, ptr %38, align 8, !tbaa !54
  %.not.i.i30 = icmp eq ptr %60, null
  br i1 %.not.i.i30, label %61, label %_ZNKSt8functionIFvPN7rocksdb11FileIndexer9IndexUnitEiEEclES3_i.exit

61:                                               ; preds = %58
  call void @_ZSt25__throw_bad_function_callv() #22
  unreachable

_ZNKSt8functionIFvPN7rocksdb11FileIndexer9IndexUnitEiEEclES3_i.exit: ; preds = %58
  %62 = load ptr, ptr %39, align 8, !tbaa !55
  call void %62(ptr noundef nonnull align 8 dereferenceable(32) %5, ptr noundef nonnull align 8 dereferenceable(8) %11, ptr noundef nonnull align 4 dereferenceable(4) %12)
  call void @llvm.lifetime.end.p0(i64 8, ptr nonnull %11)
  call void @llvm.lifetime.end.p0(i64 4, ptr nonnull %12)
  %63 = add nsw i32 %.039, 1
  br label %74

64:                                               ; preds = %_ZNKSt8functionIFiPKN7rocksdb12FileMetaDataES3_EEclES3_S3_.exit
  %65 = icmp sgt i32 %56, 0
  br i1 %65, label %66, label %68

66:                                               ; preds = %64
  %67 = add nsw i32 %.02738, 1
  br label %74

68:                                               ; preds = %64
  %69 = getelementptr inbounds %"struct.rocksdb::FileIndexer::IndexUnit", ptr %32, i64 %45
  call void @llvm.lifetime.start.p0(i64 8, ptr nonnull %9)
  call void @llvm.lifetime.start.p0(i64 4, ptr nonnull %10)
  store ptr %69, ptr %9, align 8, !tbaa !60
  store i32 %.02738, ptr %10, align 4, !tbaa !30
  %70 = load ptr, ptr %38, align 8, !tbaa !54
  %.not.i.i31 = icmp eq ptr %70, null
  br i1 %.not.i.i31, label %71, label %_ZNKSt8functionIFvPN7rocksdb11FileIndexer9IndexUnitEiEEclES3_i.exit32

71:                                               ; preds = %68
  call void @_ZSt25__throw_bad_function_callv() #22
  unreachable

_ZNKSt8functionIFvPN7rocksdb11FileIndexer9IndexUnitEiEEclES3_i.exit32: ; preds = %68
  %72 = load ptr, ptr %39, align 8, !tbaa !55
  call void %72(ptr noundef nonnull align 8 dereferenceable(32) %5, ptr noundef nonnull align 8 dereferenceable(8) %9, ptr noundef nonnull align 4 dereferenceable(4) %10)
  call void @llvm.lifetime.end.p0(i64 8, ptr nonnull %9)
  call void @llvm.lifetime.end.p0(i64 4, ptr nonnull %10)
  %73 = add nsw i32 %.039, 1
  br label %74

74:                                               ; preds = %66, %_ZNKSt8functionIFvPN7rocksdb11FileIndexer9IndexUnitEiEEclES3_i.exit32, %_ZNKSt8functionIFvPN7rocksdb11FileIndexer9IndexUnitEiEEclES3_i.exit
  %.128 = phi i32 [ %.02738, %_ZNKSt8functionIFvPN7rocksdb11FileIndexer9IndexUnitEiEEclES3_i.exit ], [ %67, %66 ], [ %.02738, %_ZNKSt8functionIFvPN7rocksdb11FileIndexer9IndexUnitEiEEclES3_i.exit32 ]
  %.1 = phi i32 [ %63, %_ZNKSt8functionIFvPN7rocksdb11FileIndexer9IndexUnitEiEEclES3_i.exit ], [ %.039, %66 ], [ %73, %_ZNKSt8functionIFvPN7rocksdb11FileIndexer9IndexUnitEiEEclES3_i.exit32 ]
  %75 = icmp slt i32 %.1, %22
  %76 = icmp slt i32 %.128, %30
  %77 = select i1 %75, i1 %76, i1 false
  br i1 %77, label %44, label %.preheader, !llvm.loop !61

78:                                               ; preds = %.lr.ph41, %_ZNKSt8functionIFvPN7rocksdb11FileIndexer9IndexUnitEiEEclES3_i.exit34
  %indvars.iv = phi i64 [ %43, %.lr.ph41 ], [ %indvars.iv.next, %_ZNKSt8functionIFvPN7rocksdb11FileIndexer9IndexUnitEiEEclES3_i.exit34 ]
  %79 = getelementptr inbounds %"struct.rocksdb::FileIndexer::IndexUnit", ptr %32, i64 %indvars.iv
  call void @llvm.lifetime.start.p0(i64 8, ptr nonnull %7)
  call void @llvm.lifetime.start.p0(i64 4, ptr nonnull %8)
  store ptr %79, ptr %7, align 8, !tbaa !60
  store i32 %30, ptr %8, align 4, !tbaa !30
  %80 = load ptr, ptr %41, align 8, !tbaa !54
  %.not.i.i33 = icmp eq ptr %80, null
  br i1 %.not.i.i33, label %81, label %_ZNKSt8functionIFvPN7rocksdb11FileIndexer9IndexUnitEiEEclES3_i.exit34

81:                                               ; preds = %78
  call void @_ZSt25__throw_bad_function_callv() #22
  unreachable

_ZNKSt8functionIFvPN7rocksdb11FileIndexer9IndexUnitEiEEclES3_i.exit34: ; preds = %78
  %82 = load ptr, ptr %42, align 8, !tbaa !55
  call void %82(ptr noundef nonnull align 8 dereferenceable(32) %5, ptr noundef nonnull align 8 dereferenceable(8) %7, ptr noundef nonnull align 4 dereferenceable(4) %8)
  call void @llvm.lifetime.end.p0(i64 8, ptr nonnull %7)
  call void @llvm.lifetime.end.p0(i64 4, ptr nonnull %8)
  %indvars.iv.next = add nsw i64 %indvars.iv, 1
  %exitcond.not = icmp eq i64 %indvars.iv.next, %wide.trip.count
  br i1 %exitcond.not, label %._crit_edge, label %78, !llvm.loop !62

._crit_edge:                                      ; preds = %_ZNKSt8functionIFvPN7rocksdb11FileIndexer9IndexUnitEiEEclES3_i.exit34, %.preheader
  ret void
}